; Function Attrs: mustprogress nofree norecurse nosync nounwind willreturn memory(readwrite, inaccessiblemem: none) uwtable
define hidden void @_ZN9Assembler8vroundpdE11XMMRegisterS0_ii(ptr noundef nonnull align 8 dereferenceable(40) %0, i32 %1, i32 %2, i32 noundef %3, i32 noundef %4) local_unnamed_addr #8 align 2 {
  %6 = alloca %class.InstructionAttr, align 8
  store <8 x i8> <i8 0, i8 1, i8 1, i8 0, i8 0, i8 0, i8 1, i8 0>, ptr %6, align 8
  %7 = getelementptr inbounds i8, ptr %6, i64 8
  store i32 %4, ptr %7, align 8
  %8 = getelementptr inbounds i8, ptr %6, i64 12
  store <4 x i32> <i32 24, i32 4, i32 0, i32 0>, ptr %8, align 4
  %9 = getelementptr inbounds i8, ptr %6, i64 32
  store ptr null, ptr %9, align 8
  %10 = sext i32 %1 to i64
  %11 = getelementptr inbounds %"class.XMMRegister::XMMRegisterImpl", ptr getelementptr inbounds (i8, ptr @all_XMMRegisterImpls, i64 1), i64 %10
  %12 = ptrtoint ptr %11 to i64
  %13 = trunc i64 %12 to i32
  %14 = sub i32 %13, ptrtoint (ptr getelementptr inbounds (i8, ptr @all_XMMRegisterImpls, i64 1) to i32)
  %15 = sext i32 %2 to i64
  %16 = getelementptr inbounds %"class.XMMRegister::XMMRegisterImpl", ptr getelementptr inbounds (i8, ptr @all_XMMRegisterImpls, i64 1), i64 %15
  %17 = ptrtoint ptr %16 to i64
  %18 = trunc i64 %17 to i32
  %19 = sub i32 %18, ptrtoint (ptr getelementptr inbounds (i8, ptr @all_XMMRegisterImpls, i64 1) to i32)
  %20 = call noundef i32 @_ZN9Assembler21vex_prefix_and_encodeEiiiNS_13VexSimdPrefixENS_9VexOpcodeEP15InstructionAttrb(ptr noundef nonnull align 8 dereferenceable(40) %0, i32 noundef %14, i32 noundef 0, i32 noundef %19, i32 noundef 1, i32 noundef 3, ptr noundef nonnull %6, i1 noundef zeroext false)
  %21 = getelementptr inbounds i8, ptr %0, i64 8
  %22 = load ptr, ptr %21, align 8
  %23 = trunc nuw nsw i32 %20 to i8
  %.0.i3.i = or disjoint i8 %23, -64
  %.0.i4.i = trunc i32 %3 to i8
  %24 = getelementptr inbounds i8, ptr %22, i64 16
  %25 = load ptr, ptr %24, align 8
  %26 = getelementptr inbounds i8, ptr %25, i64 1
  store i8 9, ptr %25, align 1
  %27 = getelementptr inbounds i8, ptr %25, i64 2
  store i8 %.0.i3.i, ptr %26, align 1
  %28 = getelementptr inbounds i8, ptr %25, i64 3
  store i8 %.0.i4.i, ptr %27, align 1
  store ptr %28, ptr %24, align 8
  %29 = load ptr, ptr %9, align 8
  %.not.i = icmp eq ptr %29, null
  br i1 %.not.i, label %_ZN15InstructionAttrD2Ev.exit, label %30

30:                                               ; preds = %5
  %31 = getelementptr inbounds i8, ptr %29, i64 32
  store ptr null, ptr %31, align 8
  br label %_ZN15InstructionAttrD2Ev.exit

_ZN15InstructionAttrD2Ev.exit:                    ; preds = %5, %30
  ret void
}